Certificate:
    Data:
        Version: 3 (0x2)
        Serial Number: 13276999441944799482 (0xb84160a5dc2de8fa)
    Signature Algorithm: sha256WithRSAEncryption
        Issuer: CN=DN42 Internal CA (UNVERIFIED)
        Validity
            Not Before: Dec 20 18:40:05 2014 GMT
            Not After : Dec 17 18:40:05 2024 GMT
        Subject: CN=DN42 Internal CA (UNVERIFIED)
        Subject Public Key Info:
            Public Key Algorithm: rsaEncryption
                Public-Key: (2048 bit)
                Modulus:
                    00:d5:89:72:1b:55:c5:b0:fa:d9:d9:09:b6:6e:cb:
                    73:04:e2:f4:09:b2:25:f9:8a:4e:56:92:a9:01:6a:
                    3e:6f:93:bc:ed:f8:26:bc:5e:f6:8c:f1:ca:a9:a5:
                    bf:24:10:e0:a4:0b:e3:15:fe:aa:79:47:60:40:ba:
                    42:80:01:c9:80:09:0f:45:1f:1e:97:60:6c:4c:43:
                    3b:54:f6:d4:cc:52:e0:2a:58:7f:09:8a:15:a3:05:
                    2a:04:7c:14:3d:52:92:47:6e:0b:e8:ec:00:18:df:
                    cd:ab:71:a2:d0:26:cd:d0:83:1b:4d:89:48:de:6e:
                    53:e5:03:2e:80:13:74:d4:04:48:8d:c1:ae:cc:4d:
                    9e:df:d9:81:db:54:5f:fd:0e:9b:d4:65:e7:ba:2b:
                    2b:4e:6a:5c:e0:6c:a7:2e:16:ca:ae:7f:8b:c8:06:
                    d7:0a:6a:fd:50:c2:67:6b:f1:e7:a1:40:77:68:f0:
                    dc:6f:df:6b:99:a9:dd:bb:d9:0f:84:22:71:66:cc:
                    33:ee:2a:92:5d:87:07:3f:ed:2f:fe:a2:12:ff:7e:
                    ce:91:42:98:67:26:f2:d1:e7:bd:9c:5d:3c:f0:10:
                    89:05:00:6a:b2:9b:71:71:df:44:3b:29:ea:2a:e8:
                    2c:78:eb:27:b3:97:02:f6:93:b0:bc:d9:b1:38:73:
                    ef:ff
                Exponent: 65537 (0x10001)
        X509v3 extensions:
            X509v3 Subject Key Identifier: 
                D7:89:A1:0A:C7:3E:A8:76:48:CA:65:A9:BD:55:69:CF:4E:5A:69:22
            X509v3 Authority Key Identifier: 
                keyid:D7:89:A1:0A:C7:3E:A8:76:48:CA:65:A9:BD:55:69:CF:4E:5A:69:22
                DirName:/CN=DN42 Internal CA (UNVERIFIED)
                serial:B8:41:60:A5:DC:2D:E8:FA

            X509v3 Basic Constraints: critical
                CA:TRUE, pathlen:0
            X509v3 Key Usage: 
                Certificate Sign, CRL Sign
            X509v3 Name Constraints: 
                Permitted:
                  DNS:.dn42

    Signature Algorithm: sha256WithRSAEncryption
         32:a5:4d:e7:9a:ee:58:0e:f4:ce:7c:96:30:1f:7e:03:80:5c:
         b0:58:08:b8:55:59:20:e9:c9:13:2e:f6:36:cc:f4:56:f7:c4:
         11:6f:f7:af:12:ac:d1:49:cb:72:77:c1:1e:5c:76:58:77:43:
         db:35:09:2e:24:c0:7f:ac:e2:46:15:e9:14:f5:d8:62:cd:d1:
         24:51:3f:f1:90:d5:1f:7f:9d:18:e0:5e:90:9b:ac:0d:7d:18:
         41:cc:17:03:f3:55:3b:6a:20:33:a5:88:44:8c:fb:41:a6:ef:
         38:82:41:69:85:ee:ef:56:41:72:2d:bd:88:a1:4b:27:87:6c:
         50:6e:bd:86:87:83:82:1c:24:8a:3d:a6:09:1d:86:fe:d3:fe:
         c5:ba:db:ef:11:8c:ef:7b:43:8e:ec:e6:11:26:25:50:05:60:
         2a:d9:47:81:f7:16:05:4e:9a:9d:93:05:25:5f:58:da:59:0d:
         87:1c:39:1b:b2:4c:0d:26:2c:7c:e3:6c:93:33:de:b7:d1:de:
         1e:b9:ae:eb:b1:27:5c:c6:a9:10:b0:a3:64:bd:ce:5f:42:a6:
         a7:16:06:8a:5e:8b:cb:9c:48:99:a5:6a:c3:19:e6:ef:09:43:
         88:d4:fa:bd:dd:1c:3e:0b:4a:77:f6:32:9c:f1:4d:c3:d1:21:
         f8:c4:9a:9b
-----BEGIN CERTIFICATE-----
MIIDhzCCAm+gAwIBAgIJALhBYKXcLej6MA0GCSqGSIb3DQEBCwUAMCgxJjAkBgNV
BAMTHURONDIgSW50ZXJuYWwgQ0EgKFVOVkVSSUZJRUQpMB4XDTE0MTIyMDE4NDAw
NVoXDTI0MTIxNzE4NDAwNVowKDEmMCQGA1UEAxMdRE40MiBJbnRlcm5hbCBDQSAo
VU5WRVJJRklFRCkwggEiMA0GCSqGSIb3DQEBAQUAA4IBDwAwggEKAoIBAQDViXIb
VcWw+tnZCbZuy3ME4vQJsiX5ik5WkqkBaj5vk7zt+Ca8XvaM8cqppb8kEOCkC+MV
/qp5R2BAukKAAcmACQ9FHx6XYGxMQztU9tTMUuAqWH8JihWjBSoEfBQ9UpJHbgvo
7AAY382rcaLQJs3QgxtNiUjeblPlAy6AE3TUBEiNwa7MTZ7f2YHbVF/9DpvUZee6
KytOalzgbKcuFsquf4vIBtcKav1Qwmdr8eehQHdo8Nxv32uZqd272Q+EInFmzDPu
KpJdhwc/7S/+ohL/fs6RQphnJvLR572cXTzwEIkFAGqym3Fx30Q7Keoq6Cx46yez
lwL2k7C82bE4c+//AgMBAAGjgbMwgbAwHQYDVR0OBBYEFNeJoQrHPqh2SMplqb1V
ac9OWmkiMFgGA1UdIwRRME+AFNeJoQrHPqh2SMplqb1Vac9OWmkioSykKjAoMSYw
JAYDVQQDEx1ETjQyIEludGVybmFsIENBIChVTlZFUklGSUVEKYIJALhBYKXcLej6
MBIGA1UdEwEB/wQIMAYBAf8CAQAwCwYDVR0PBAQDAgEGMBQGA1UdHgQNMAugCTAH
ggUuZG40MjANBgkqhkiG9w0BAQsFAAOCAQEAMqVN55ruWA70znyWMB9+A4BcsFgI
uFVZIOnJEy72Nsz0VvfEEW/3rxKs0UnLcnfBHlx2WHdD2zUJLiTAf6ziRhXpFPXY
Ys3RJFE/8ZDVH3+dGOBekJusDX0YQcwXA/NVO2ogM6WIRIz7QabvOIJBaYXu71ZB
ci29iKFLJ4dsUG69hoeDghwkij2mCR2G/tP+xbrb7xGM73tDjuzmESYlUAVgKtlH
gfcWBU6anZMFJV9Y2lkNhxw5G7JMDSYsfONskzPet9HeHrmu67EnXMapELCjZL3O
X0KmpxYGil6Ly5xImaVqwxnm7wlDiNT6vd0cPgtKd/YynPFNw9Eh+MSamw==
-----END CERTIFICATE-----
